; Function Attrs: mustprogress nounwind uwtable
define hidden void @_ZN14RangeCheckStub9emit_codeEP13LIR_Assembler(ptr noundef nonnull align 8 dereferenceable(113) %0, ptr noundef %1) unnamed_addr #0 align 2 {
  %3 = alloca %class.AddressLiteral, align 8
  %4 = alloca %class.RuntimeAddress, align 8
  %5 = alloca %class.AddressLiteral, align 8
  %6 = alloca %class.RuntimeAddress, align 8
  %7 = load ptr, ptr %1, align 8
  %8 = getelementptr inbounds i8, ptr %0, i64 8
  tail call void @_ZN17AbstractAssembler4bindER5Label(ptr noundef nonnull align 8 dereferenceable(24) %7, ptr noundef nonnull align 8 dereferenceable(33) %8) #6
  %9 = getelementptr inbounds i8, ptr %0, i64 88
  %10 = load ptr, ptr %9, align 8
  %11 = getelementptr inbounds i8, ptr %10, i64 41
  %12 = load i8, ptr %11, align 1
  %13 = trunc i8 %12 to i1
  br i1 %13, label %14, label %26

14:                                               ; preds = %2
  %15 = tail call noundef ptr @_ZN8Runtime18blob_forENS_6StubIDE(i32 noundef 32) #6
  %16 = getelementptr inbounds i8, ptr %15, i64 36
  %17 = load i32, ptr %16, align 4
  %18 = sext i32 %17 to i64
  %19 = getelementptr inbounds i8, ptr %15, i64 %18
  %20 = load ptr, ptr %1, align 8
  call void @_ZN14AddressLiteralC2EPhN9relocInfo9relocTypeE(ptr noundef nonnull align 8 dereferenceable(56) %4, ptr noundef %19, i32 noundef 6) #6
  %21 = load ptr, ptr %4, align 8
  %22 = getelementptr inbounds i8, ptr %21, i64 16
  %23 = load ptr, ptr %22, align 8
  call void %23(ptr noundef nonnull align 8 dereferenceable(20) %4, ptr noundef nonnull align 8 dereferenceable(40) %3) #6
  %24 = getelementptr inbounds i8, ptr %3, i64 40
  %25 = getelementptr inbounds i8, ptr %4, i64 40
  call void @llvm.memcpy.p0.p0.i64(ptr noundef nonnull align 8 dereferenceable(16) %24, ptr noundef nonnull align 8 dereferenceable(16) %25, i64 16, i1 false)
  call void @_ZN14MacroAssembler4callE14AddressLiteral8Register(ptr noundef nonnull align 8 dereferenceable(40) %20, ptr noundef nonnull %3, i32 0) #6
  br label %65

26:                                               ; preds = %2
  %27 = getelementptr inbounds i8, ptr %0, i64 96
  %28 = load i64, ptr %27, align 8
  %29 = and i64 %28, 7
  %30 = icmp eq i64 %29, 3
  br i1 %30, label %31, label %33

31:                                               ; preds = %26
  %32 = tail call i32 @_ZNK7LIR_Opr11as_registerEv(ptr noundef nonnull align 8 dereferenceable(8) %27) #6
  tail call void @_ZN13LIR_Assembler15store_parameterE8Registeri(ptr noundef nonnull align 8 dereferenceable(96) %1, i32 %32, i32 noundef 0) #6
  br label %40

33:                                               ; preds = %26
  %34 = inttoptr i64 %28 to ptr
  %35 = load ptr, ptr %34, align 8
  %36 = load ptr, ptr %35, align 8
  %37 = tail call noundef ptr %36(ptr noundef nonnull align 8 dereferenceable(8) %34) #6
  %38 = getelementptr inbounds i8, ptr %37, i64 16
  %39 = load i32, ptr %38, align 8
  tail call void @_ZN13LIR_Assembler15store_parameterEii(ptr noundef nonnull align 8 dereferenceable(96) %1, i32 noundef %39, i32 noundef 0) #6
  br label %40

40:                                               ; preds = %33, %31
  %41 = getelementptr inbounds i8, ptr %0, i64 112
  %42 = load i8, ptr %41, align 8
  %43 = trunc i8 %42 to i1
  br i1 %43, label %53, label %44

44:                                               ; preds = %40
  %45 = getelementptr inbounds i8, ptr %0, i64 104
  %46 = load i64, ptr %45, align 8
  %47 = and i64 %46, 391
  %48 = icmp eq i64 %47, 131
  br i1 %48, label %49, label %51

49:                                               ; preds = %44
  %50 = tail call i32 @_ZNK7LIR_Opr14as_register_loEv(ptr noundef nonnull align 8 dereferenceable(8) %45) #6
  br label %_ZN7LIR_Opr19as_pointer_registerEv.exit

51:                                               ; preds = %44
  %52 = tail call i32 @_ZNK7LIR_Opr11as_registerEv(ptr noundef nonnull align 8 dereferenceable(8) %45) #6
  br label %_ZN7LIR_Opr19as_pointer_registerEv.exit

_ZN7LIR_Opr19as_pointer_registerEv.exit:          ; preds = %49, %51
  %.sroa.0.0.i = phi i32 [ %50, %49 ], [ %52, %51 ]
  tail call void @_ZN13LIR_Assembler15store_parameterE8Registeri(ptr noundef nonnull align 8 dereferenceable(96) %1, i32 %.sroa.0.0.i, i32 noundef 1) #6
  br label %53

53:                                               ; preds = %40, %_ZN7LIR_Opr19as_pointer_registerEv.exit
  %.0 = phi i32 [ 3, %_ZN7LIR_Opr19as_pointer_registerEv.exit ], [ 4, %40 ]
  %54 = load ptr, ptr %1, align 8
  %55 = tail call noundef ptr @_ZN8Runtime18blob_forENS_6StubIDE(i32 noundef %.0) #6
  %56 = getelementptr inbounds i8, ptr %55, i64 36
  %57 = load i32, ptr %56, align 4
  %58 = sext i32 %57 to i64
  %59 = getelementptr inbounds i8, ptr %55, i64 %58
  call void @_ZN14AddressLiteralC2EPhN9relocInfo9relocTypeE(ptr noundef nonnull align 8 dereferenceable(56) %6, ptr noundef %59, i32 noundef 6) #6
  %60 = load ptr, ptr %6, align 8
  %61 = getelementptr inbounds i8, ptr %60, i64 16
  %62 = load ptr, ptr %61, align 8
  call void %62(ptr noundef nonnull align 8 dereferenceable(20) %6, ptr noundef nonnull align 8 dereferenceable(40) %5) #6
  %63 = getelementptr inbounds i8, ptr %5, i64 40
  %64 = getelementptr inbounds i8, ptr %6, i64 40
  call void @llvm.memcpy.p0.p0.i64(ptr noundef nonnull align 8 dereferenceable(16) %63, ptr noundef nonnull align 8 dereferenceable(16) %64, i64 16, i1 false)
  call void @_ZN14MacroAssembler4callE14AddressLiteral8Register(ptr noundef nonnull align 8 dereferenceable(40) %54, ptr noundef nonnull %5, i32 0) #6
  br label %65

65:                                               ; preds = %53, %14
  %66 = load ptr, ptr %9, align 8
  %67 = call noundef i32 @_ZNK13LIR_Assembler11code_offsetEv(ptr noundef nonnull align 8 dereferenceable(96) %1) #6
  call void @_ZN13LIR_Assembler13add_call_infoEiP12CodeEmitInfo(ptr noundef nonnull align 8 dereferenceable(96) %1, i32 noundef %67, ptr noundef %66) #6
  %68 = load ptr, ptr %9, align 8
  call void @_ZN13LIR_Assembler14verify_oop_mapEP12CodeEmitInfo(ptr noundef nonnull align 8 dereferenceable(96) %1, ptr noundef %68) #6
  ret void
}